
a.out:     file format elf64-x86-64


Disassembly of section .init:

00000000004007d8 <_init>:
  4007d8:	48 83 ec 08          	sub    $0x8,%rsp
  4007dc:	48 8b 05 15 18 20 00 	mov    0x201815(%rip),%rax        # 601ff8 <_DYNAMIC+0x1f0>
  4007e3:	48 85 c0             	test   %rax,%rax
  4007e6:	74 05                	je     4007ed <_init+0x15>
  4007e8:	e8 c3 00 00 00       	callq  4008b0 <_Unwind_Resume@plt+0x10>
  4007ed:	48 83 c4 08          	add    $0x8,%rsp
  4007f1:	c3                   	retq   

Disassembly of section .plt:

0000000000400800 <_ZNSt8ios_base4InitC1Ev@plt-0x10>:
  400800:	ff 35 02 18 20 00    	pushq  0x201802(%rip)        # 602008 <_GLOBAL_OFFSET_TABLE_+0x8>
  400806:	ff 25 04 18 20 00    	jmpq   *0x201804(%rip)        # 602010 <_GLOBAL_OFFSET_TABLE_+0x10>
  40080c:	0f 1f 40 00          	nopl   0x0(%rax)

0000000000400810 <_ZNSt8ios_base4InitC1Ev@plt>:
  400810:	ff 25 02 18 20 00    	jmpq   *0x201802(%rip)        # 602018 <_GLOBAL_OFFSET_TABLE_+0x18>
  400816:	68 00 00 00 00       	pushq  $0x0
  40081b:	e9 e0 ff ff ff       	jmpq   400800 <_init+0x28>

0000000000400820 <__libc_start_main@plt>:
  400820:	ff 25 fa 17 20 00    	jmpq   *0x2017fa(%rip)        # 602020 <_GLOBAL_OFFSET_TABLE_+0x20>
  400826:	68 01 00 00 00       	pushq  $0x1
  40082b:	e9 d0 ff ff ff       	jmpq   400800 <_init+0x28>

0000000000400830 <__cxa_atexit@plt>:
  400830:	ff 25 f2 17 20 00    	jmpq   *0x2017f2(%rip)        # 602028 <_GLOBAL_OFFSET_TABLE_+0x28>
  400836:	68 02 00 00 00       	pushq  $0x2
  40083b:	e9 c0 ff ff ff       	jmpq   400800 <_init+0x28>

0000000000400840 <_ZNSt8ios_base4InitD1Ev@plt>:
  400840:	ff 25 ea 17 20 00    	jmpq   *0x2017ea(%rip)        # 602030 <_GLOBAL_OFFSET_TABLE_+0x30>
  400846:	68 03 00 00 00       	pushq  $0x3
  40084b:	e9 b0 ff ff ff       	jmpq   400800 <_init+0x28>

0000000000400850 <_ZStlsISt11char_traitsIcEERSt13basic_ostreamIcT_ES5_PKc@plt>:
  400850:	ff 25 e2 17 20 00    	jmpq   *0x2017e2(%rip)        # 602038 <_GLOBAL_OFFSET_TABLE_+0x38>
  400856:	68 04 00 00 00       	pushq  $0x4
  40085b:	e9 a0 ff ff ff       	jmpq   400800 <_init+0x28>

0000000000400860 <__stack_chk_fail@plt>:
  400860:	ff 25 da 17 20 00    	jmpq   *0x2017da(%rip)        # 602040 <_GLOBAL_OFFSET_TABLE_+0x40>
  400866:	68 05 00 00 00       	pushq  $0x5
  40086b:	e9 90 ff ff ff       	jmpq   400800 <_init+0x28>

0000000000400870 <_ZNSolsEPFRSoS_E@plt>:
  400870:	ff 25 d2 17 20 00    	jmpq   *0x2017d2(%rip)        # 602048 <_GLOBAL_OFFSET_TABLE_+0x48>
  400876:	68 06 00 00 00       	pushq  $0x6
  40087b:	e9 80 ff ff ff       	jmpq   400800 <_init+0x28>

0000000000400880 <_ZSt4endlIcSt11char_traitsIcEERSt13basic_ostreamIT_T0_ES6_@plt>:
  400880:	ff 25 ca 17 20 00    	jmpq   *0x2017ca(%rip)        # 602050 <_GLOBAL_OFFSET_TABLE_+0x50>
  400886:	68 07 00 00 00       	pushq  $0x7
  40088b:	e9 70 ff ff ff       	jmpq   400800 <_init+0x28>

0000000000400890 <__gxx_personality_v0@plt>:
  400890:	ff 25 c2 17 20 00    	jmpq   *0x2017c2(%rip)        # 602058 <_GLOBAL_OFFSET_TABLE_+0x58>
  400896:	68 08 00 00 00       	pushq  $0x8
  40089b:	e9 60 ff ff ff       	jmpq   400800 <_init+0x28>

00000000004008a0 <_Unwind_Resume@plt>:
  4008a0:	ff 25 ba 17 20 00    	jmpq   *0x2017ba(%rip)        # 602060 <_GLOBAL_OFFSET_TABLE_+0x60>
  4008a6:	68 09 00 00 00       	pushq  $0x9
  4008ab:	e9 50 ff ff ff       	jmpq   400800 <_init+0x28>

Disassembly of section .plt.got:

00000000004008b0 <.plt.got>:
  4008b0:	ff 25 42 17 20 00    	jmpq   *0x201742(%rip)        # 601ff8 <_DYNAMIC+0x1f0>
  4008b6:	66 90                	xchg   %ax,%ax

Disassembly of section .text:

00000000004008c0 <_start>:
  4008c0:	31 ed                	xor    %ebp,%ebp
  4008c2:	49 89 d1             	mov    %rdx,%r9
  4008c5:	5e                   	pop    %rsi
  4008c6:	48 89 e2             	mov    %rsp,%rdx
  4008c9:	48 83 e4 f0          	and    $0xfffffffffffffff0,%rsp
  4008cd:	50                   	push   %rax
  4008ce:	54                   	push   %rsp
  4008cf:	49 c7 c0 f0 0d 40 00 	mov    $0x400df0,%r8
  4008d6:	48 c7 c1 80 0d 40 00 	mov    $0x400d80,%rcx
  4008dd:	48 c7 c7 a8 0a 40 00 	mov    $0x400aa8,%rdi
  4008e4:	e8 37 ff ff ff       	callq  400820 <__libc_start_main@plt>
  4008e9:	f4                   	hlt    
  4008ea:	66 0f 1f 44 00 00    	nopw   0x0(%rax,%rax,1)

00000000004008f0 <deregister_tm_clones>:
  4008f0:	b8 7f 20 60 00       	mov    $0x60207f,%eax
  4008f5:	55                   	push   %rbp
  4008f6:	48 2d 78 20 60 00    	sub    $0x602078,%rax
  4008fc:	48 83 f8 0e          	cmp    $0xe,%rax
  400900:	48 89 e5             	mov    %rsp,%rbp
  400903:	76 1b                	jbe    400920 <deregister_tm_clones+0x30>
  400905:	b8 00 00 00 00       	mov    $0x0,%eax
  40090a:	48 85 c0             	test   %rax,%rax
  40090d:	74 11                	je     400920 <deregister_tm_clones+0x30>
  40090f:	5d                   	pop    %rbp
  400910:	bf 78 20 60 00       	mov    $0x602078,%edi
  400915:	ff e0                	jmpq   *%rax
  400917:	66 0f 1f 84 00 00 00 	nopw   0x0(%rax,%rax,1)
  40091e:	00 00 
  400920:	5d                   	pop    %rbp
  400921:	c3                   	retq   
  400922:	0f 1f 40 00          	nopl   0x0(%rax)
  400926:	66 2e 0f 1f 84 00 00 	nopw   %cs:0x0(%rax,%rax,1)
  40092d:	00 00 00 

0000000000400930 <register_tm_clones>:
  400930:	be 78 20 60 00       	mov    $0x602078,%esi
  400935:	55                   	push   %rbp
  400936:	48 81 ee 78 20 60 00 	sub    $0x602078,%rsi
  40093d:	48 c1 fe 03          	sar    $0x3,%rsi
  400941:	48 89 e5             	mov    %rsp,%rbp
  400944:	48 89 f0             	mov    %rsi,%rax
  400947:	48 c1 e8 3f          	shr    $0x3f,%rax
  40094b:	48 01 c6             	add    %rax,%rsi
  40094e:	48 d1 fe             	sar    %rsi
  400951:	74 15                	je     400968 <register_tm_clones+0x38>
  400953:	b8 00 00 00 00       	mov    $0x0,%eax
  400958:	48 85 c0             	test   %rax,%rax
  40095b:	74 0b                	je     400968 <register_tm_clones+0x38>
  40095d:	5d                   	pop    %rbp
  40095e:	bf 78 20 60 00       	mov    $0x602078,%edi
  400963:	ff e0                	jmpq   *%rax
  400965:	0f 1f 00             	nopl   (%rax)
  400968:	5d                   	pop    %rbp
  400969:	c3                   	retq   
  40096a:	66 0f 1f 44 00 00    	nopw   0x0(%rax,%rax,1)

0000000000400970 <__do_global_dtors_aux>:
  400970:	80 3d 19 18 20 00 00 	cmpb   $0x0,0x201819(%rip)        # 602190 <completed.7594>
  400977:	75 11                	jne    40098a <__do_global_dtors_aux+0x1a>
  400979:	55                   	push   %rbp
  40097a:	48 89 e5             	mov    %rsp,%rbp
  40097d:	e8 6e ff ff ff       	callq  4008f0 <deregister_tm_clones>
  400982:	5d                   	pop    %rbp
  400983:	c6 05 06 18 20 00 01 	movb   $0x1,0x201806(%rip)        # 602190 <completed.7594>
  40098a:	f3 c3                	repz retq 
  40098c:	0f 1f 40 00          	nopl   0x0(%rax)

0000000000400990 <frame_dummy>:
  400990:	bf 00 1e 60 00       	mov    $0x601e00,%edi
  400995:	48 83 3f 00          	cmpq   $0x0,(%rdi)
  400999:	75 05                	jne    4009a0 <frame_dummy+0x10>
  40099b:	eb 93                	jmp    400930 <register_tm_clones>
  40099d:	0f 1f 00             	nopl   (%rax)
  4009a0:	b8 00 00 00 00       	mov    $0x0,%eax
  4009a5:	48 85 c0             	test   %rax,%rax
  4009a8:	74 f1                	je     40099b <frame_dummy+0xb>
  4009aa:	55                   	push   %rbp
  4009ab:	48 89 e5             	mov    %rsp,%rbp
  4009ae:	ff d0                	callq  *%rax
  4009b0:	5d                   	pop    %rbp
  4009b1:	e9 7a ff ff ff       	jmpq   400930 <register_tm_clones>

00000000004009b6 <_ZN14test_namespace10test_printEv>:
  4009b6:	55                   	push   %rbp
  4009b7:	48 89 e5             	mov    %rsp,%rbp
  4009ba:	be 98 0e 40 00       	mov    $0x400e98,%esi
  4009bf:	bf 80 20 60 00       	mov    $0x602080,%edi
  4009c4:	e8 87 fe ff ff       	callq  400850 <_ZStlsISt11char_traitsIcEERSt13basic_ostreamIcT_ES5_PKc@plt>
  4009c9:	be 80 08 40 00       	mov    $0x400880,%esi
  4009ce:	48 89 c7             	mov    %rax,%rdi
  4009d1:	e8 9a fe ff ff       	callq  400870 <_ZNSolsEPFRSoS_E@plt>
  4009d6:	90                   	nop
  4009d7:	5d                   	pop    %rbp
  4009d8:	c3                   	retq   

00000000004009d9 <_ZN14test_namespace10test_printEi>:
  4009d9:	55                   	push   %rbp
  4009da:	48 89 e5             	mov    %rsp,%rbp
  4009dd:	48 83 ec 10          	sub    $0x10,%rsp
  4009e1:	89 7d fc             	mov    %edi,-0x4(%rbp)
  4009e4:	be c0 0e 40 00       	mov    $0x400ec0,%esi
  4009e9:	bf 80 20 60 00       	mov    $0x602080,%edi
  4009ee:	e8 5d fe ff ff       	callq  400850 <_ZStlsISt11char_traitsIcEERSt13basic_ostreamIcT_ES5_PKc@plt>
  4009f3:	be 80 08 40 00       	mov    $0x400880,%esi
  4009f8:	48 89 c7             	mov    %rax,%rdi
  4009fb:	e8 70 fe ff ff       	callq  400870 <_ZNSolsEPFRSoS_E@plt>
  400a00:	90                   	nop
  400a01:	c9                   	leaveq 
  400a02:	c3                   	retq   

0000000000400a03 <_ZN14test_namespace10test_printEd>:
  400a03:	55                   	push   %rbp
  400a04:	48 89 e5             	mov    %rsp,%rbp
  400a07:	48 83 ec 10          	sub    $0x10,%rsp
  400a0b:	f2 0f 11 45 f8       	movsd  %xmm0,-0x8(%rbp)
  400a10:	be e8 0e 40 00       	mov    $0x400ee8,%esi
  400a15:	bf 80 20 60 00       	mov    $0x602080,%edi
  400a1a:	e8 31 fe ff ff       	callq  400850 <_ZStlsISt11char_traitsIcEERSt13basic_ostreamIcT_ES5_PKc@plt>
  400a1f:	be 80 08 40 00       	mov    $0x400880,%esi
  400a24:	48 89 c7             	mov    %rax,%rdi
  400a27:	e8 44 fe ff ff       	callq  400870 <_ZNSolsEPFRSoS_E@plt>
  400a2c:	90                   	nop
  400a2d:	c9                   	leaveq 
  400a2e:	c3                   	retq   

0000000000400a2f <_Z10test_printv>:
  400a2f:	55                   	push   %rbp
  400a30:	48 89 e5             	mov    %rsp,%rbp
  400a33:	be 73 0f 40 00       	mov    $0x400f73,%esi
  400a38:	bf 80 20 60 00       	mov    $0x602080,%edi
  400a3d:	e8 0e fe ff ff       	callq  400850 <_ZStlsISt11char_traitsIcEERSt13basic_ostreamIcT_ES5_PKc@plt>
  400a42:	be 80 08 40 00       	mov    $0x400880,%esi
  400a47:	48 89 c7             	mov    %rax,%rdi
  400a4a:	e8 21 fe ff ff       	callq  400870 <_ZNSolsEPFRSoS_E@plt>
  400a4f:	90                   	nop
  400a50:	5d                   	pop    %rbp
  400a51:	c3                   	retq   

0000000000400a52 <_Z10test_printi>:
  400a52:	55                   	push   %rbp
  400a53:	48 89 e5             	mov    %rsp,%rbp
  400a56:	48 83 ec 10          	sub    $0x10,%rsp
  400a5a:	89 7d fc             	mov    %edi,-0x4(%rbp)
  400a5d:	be 87 0f 40 00       	mov    $0x400f87,%esi
  400a62:	bf 80 20 60 00       	mov    $0x602080,%edi
  400a67:	e8 e4 fd ff ff       	callq  400850 <_ZStlsISt11char_traitsIcEERSt13basic_ostreamIcT_ES5_PKc@plt>
  400a6c:	be 80 08 40 00       	mov    $0x400880,%esi
  400a71:	48 89 c7             	mov    %rax,%rdi
  400a74:	e8 f7 fd ff ff       	callq  400870 <_ZNSolsEPFRSoS_E@plt>
  400a79:	90                   	nop
  400a7a:	c9                   	leaveq 
  400a7b:	c3                   	retq   

0000000000400a7c <_Z10test_printd>:
  400a7c:	55                   	push   %rbp
  400a7d:	48 89 e5             	mov    %rsp,%rbp
  400a80:	48 83 ec 10          	sub    $0x10,%rsp
  400a84:	f2 0f 11 45 f8       	movsd  %xmm0,-0x8(%rbp)
  400a89:	be a0 0f 40 00       	mov    $0x400fa0,%esi
  400a8e:	bf 80 20 60 00       	mov    $0x602080,%edi
  400a93:	e8 b8 fd ff ff       	callq  400850 <_ZStlsISt11char_traitsIcEERSt13basic_ostreamIcT_ES5_PKc@plt>
  400a98:	be 80 08 40 00       	mov    $0x400880,%esi
  400a9d:	48 89 c7             	mov    %rax,%rdi
  400aa0:	e8 cb fd ff ff       	callq  400870 <_ZNSolsEPFRSoS_E@plt>
  400aa5:	90                   	nop
  400aa6:	c9                   	leaveq 
  400aa7:	c3                   	retq   

0000000000400aa8 <main>:
  400aa8:	55                   	push   %rbp
  400aa9:	48 89 e5             	mov    %rsp,%rbp
  400aac:	53                   	push   %rbx
  400aad:	48 83 ec 18          	sub    $0x18,%rsp
  400ab1:	64 48 8b 04 25 28 00 	mov    %fs:0x28,%rax
  400ab8:	00 00 
  400aba:	48 89 45 e8          	mov    %rax,-0x18(%rbp)
  400abe:	31 c0                	xor    %eax,%eax
  400ac0:	48 8d 45 e6          	lea    -0x1a(%rbp),%rax
  400ac4:	48 89 c7             	mov    %rax,%rdi
  400ac7:	e8 6e 01 00 00       	callq  400c3a <_ZN14test_namespace5CTestC1Ev>
  400acc:	48 8d 45 e6          	lea    -0x1a(%rbp),%rax
  400ad0:	48 89 c7             	mov    %rax,%rdi
  400ad3:	e8 7a 01 00 00       	callq  400c52 <_ZN14test_namespace5CTest10test_printEv>
  400ad8:	48 8d 45 e6          	lea    -0x1a(%rbp),%rax
  400adc:	be 01 00 00 00       	mov    $0x1,%esi
  400ae1:	48 89 c7             	mov    %rax,%rdi
  400ae4:	e8 95 01 00 00       	callq  400c7e <_ZN14test_namespace5CTest10test_printEi>
  400ae9:	48 8d 45 e6          	lea    -0x1a(%rbp),%rax
  400aed:	f2 0f 10 05 cb 04 00 	movsd  0x4cb(%rip),%xmm0        # 400fc0 <_IO_stdin_used+0x1c0>
  400af4:	00 
  400af5:	48 89 c7             	mov    %rax,%rdi
  400af8:	e8 af 01 00 00       	callq  400cac <_ZN14test_namespace5CTest10test_printEd>
  400afd:	e8 b4 fe ff ff       	callq  4009b6 <_ZN14test_namespace10test_printEv>
  400b02:	bf 01 00 00 00       	mov    $0x1,%edi
  400b07:	e8 cd fe ff ff       	callq  4009d9 <_ZN14test_namespace10test_printEi>
  400b0c:	f2 0f 10 05 ac 04 00 	movsd  0x4ac(%rip),%xmm0        # 400fc0 <_IO_stdin_used+0x1c0>
  400b13:	00 
  400b14:	e8 ea fe ff ff       	callq  400a03 <_ZN14test_namespace10test_printEd>
  400b19:	be 80 08 40 00       	mov    $0x400880,%esi
  400b1e:	bf 80 20 60 00       	mov    $0x602080,%edi
  400b23:	e8 48 fd ff ff       	callq  400870 <_ZNSolsEPFRSoS_E@plt>
  400b28:	48 8d 45 e7          	lea    -0x19(%rbp),%rax
  400b2c:	48 89 c7             	mov    %rax,%rdi
  400b2f:	e8 a8 01 00 00       	callq  400cdc <_ZN5CTestC1Ev>
  400b34:	48 8d 45 e7          	lea    -0x19(%rbp),%rax
  400b38:	48 89 c7             	mov    %rax,%rdi
  400b3b:	e8 b4 01 00 00       	callq  400cf4 <_ZN5CTest10test_printEv>
  400b40:	48 8d 45 e7          	lea    -0x19(%rbp),%rax
  400b44:	be 01 00 00 00       	mov    $0x1,%esi
  400b49:	48 89 c7             	mov    %rax,%rdi
  400b4c:	e8 cf 01 00 00       	callq  400d20 <_ZN5CTest10test_printEi>
  400b51:	48 8d 45 e7          	lea    -0x19(%rbp),%rax
  400b55:	f2 0f 10 05 63 04 00 	movsd  0x463(%rip),%xmm0        # 400fc0 <_IO_stdin_used+0x1c0>
  400b5c:	00 
  400b5d:	48 89 c7             	mov    %rax,%rdi
  400b60:	e8 e9 01 00 00       	callq  400d4e <_ZN5CTest10test_printEd>
  400b65:	e8 c5 fe ff ff       	callq  400a2f <_Z10test_printv>
  400b6a:	bf 01 00 00 00       	mov    $0x1,%edi
  400b6f:	e8 de fe ff ff       	callq  400a52 <_Z10test_printi>
  400b74:	f2 0f 10 05 44 04 00 	movsd  0x444(%rip),%xmm0        # 400fc0 <_IO_stdin_used+0x1c0>
  400b7b:	00 
  400b7c:	e8 fb fe ff ff       	callq  400a7c <_Z10test_printd>
  400b81:	48 8d 45 e7          	lea    -0x19(%rbp),%rax
  400b85:	48 89 c7             	mov    %rax,%rdi
  400b88:	e8 5b 01 00 00       	callq  400ce8 <_ZN5CTestD1Ev>
  400b8d:	48 8d 45 e6          	lea    -0x1a(%rbp),%rax
  400b91:	48 89 c7             	mov    %rax,%rdi
  400b94:	e8 ad 00 00 00       	callq  400c46 <_ZN14test_namespace5CTestD1Ev>
  400b99:	b8 00 00 00 00       	mov    $0x0,%eax
  400b9e:	48 8b 55 e8          	mov    -0x18(%rbp),%rdx
  400ba2:	64 48 33 14 25 28 00 	xor    %fs:0x28,%rdx
  400ba9:	00 00 
  400bab:	74 32                	je     400bdf <main+0x137>
  400bad:	eb 2b                	jmp    400bda <main+0x132>
  400baf:	48 89 c3             	mov    %rax,%rbx
  400bb2:	48 8d 45 e7          	lea    -0x19(%rbp),%rax
  400bb6:	48 89 c7             	mov    %rax,%rdi
  400bb9:	e8 2a 01 00 00       	callq  400ce8 <_ZN5CTestD1Ev>
  400bbe:	eb 03                	jmp    400bc3 <main+0x11b>
  400bc0:	48 89 c3             	mov    %rax,%rbx
  400bc3:	48 8d 45 e6          	lea    -0x1a(%rbp),%rax
  400bc7:	48 89 c7             	mov    %rax,%rdi
  400bca:	e8 77 00 00 00       	callq  400c46 <_ZN14test_namespace5CTestD1Ev>
  400bcf:	48 89 d8             	mov    %rbx,%rax
  400bd2:	48 89 c7             	mov    %rax,%rdi
  400bd5:	e8 c6 fc ff ff       	callq  4008a0 <_Unwind_Resume@plt>
  400bda:	e8 81 fc ff ff       	callq  400860 <__stack_chk_fail@plt>
  400bdf:	48 83 c4 18          	add    $0x18,%rsp
  400be3:	5b                   	pop    %rbx
  400be4:	5d                   	pop    %rbp
  400be5:	c3                   	retq   

0000000000400be6 <_Z41__static_initialization_and_destruction_0ii>:
  400be6:	55                   	push   %rbp
  400be7:	48 89 e5             	mov    %rsp,%rbp
  400bea:	48 83 ec 10          	sub    $0x10,%rsp
  400bee:	89 7d fc             	mov    %edi,-0x4(%rbp)
  400bf1:	89 75 f8             	mov    %esi,-0x8(%rbp)
  400bf4:	83 7d fc 01          	cmpl   $0x1,-0x4(%rbp)
  400bf8:	75 27                	jne    400c21 <_Z41__static_initialization_and_destruction_0ii+0x3b>
  400bfa:	81 7d f8 ff ff 00 00 	cmpl   $0xffff,-0x8(%rbp)
  400c01:	75 1e                	jne    400c21 <_Z41__static_initialization_and_destruction_0ii+0x3b>
  400c03:	bf 91 21 60 00       	mov    $0x602191,%edi
  400c08:	e8 03 fc ff ff       	callq  400810 <_ZNSt8ios_base4InitC1Ev@plt>
  400c0d:	ba 70 20 60 00       	mov    $0x602070,%edx
  400c12:	be 91 21 60 00       	mov    $0x602191,%esi
  400c17:	bf 40 08 40 00       	mov    $0x400840,%edi
  400c1c:	e8 0f fc ff ff       	callq  400830 <__cxa_atexit@plt>
  400c21:	90                   	nop
  400c22:	c9                   	leaveq 
  400c23:	c3                   	retq   

0000000000400c24 <_GLOBAL__sub_I__ZN14test_namespace10test_printEv>:
  400c24:	55                   	push   %rbp
  400c25:	48 89 e5             	mov    %rsp,%rbp
  400c28:	be ff ff 00 00       	mov    $0xffff,%esi
  400c2d:	bf 01 00 00 00       	mov    $0x1,%edi
  400c32:	e8 af ff ff ff       	callq  400be6 <_Z41__static_initialization_and_destruction_0ii>
  400c37:	5d                   	pop    %rbp
  400c38:	c3                   	retq   
  400c39:	90                   	nop

0000000000400c3a <_ZN14test_namespace5CTestC1Ev>:
  400c3a:	55                   	push   %rbp
  400c3b:	48 89 e5             	mov    %rsp,%rbp
  400c3e:	48 89 7d f8          	mov    %rdi,-0x8(%rbp)
  400c42:	90                   	nop
  400c43:	5d                   	pop    %rbp
  400c44:	c3                   	retq   
  400c45:	90                   	nop

0000000000400c46 <_ZN14test_namespace5CTestD1Ev>:
  400c46:	55                   	push   %rbp
  400c47:	48 89 e5             	mov    %rsp,%rbp
  400c4a:	48 89 7d f8          	mov    %rdi,-0x8(%rbp)
  400c4e:	90                   	nop
  400c4f:	5d                   	pop    %rbp
  400c50:	c3                   	retq   
  400c51:	90                   	nop

0000000000400c52 <_ZN14test_namespace5CTest10test_printEv>:
  400c52:	55                   	push   %rbp
  400c53:	48 89 e5             	mov    %rsp,%rbp
  400c56:	48 83 ec 10          	sub    $0x10,%rsp
  400c5a:	48 89 7d f8          	mov    %rdi,-0x8(%rbp)
  400c5e:	be 08 0e 40 00       	mov    $0x400e08,%esi
  400c63:	bf 80 20 60 00       	mov    $0x602080,%edi
  400c68:	e8 e3 fb ff ff       	callq  400850 <_ZStlsISt11char_traitsIcEERSt13basic_ostreamIcT_ES5_PKc@plt>
  400c6d:	be 80 08 40 00       	mov    $0x400880,%esi
  400c72:	48 89 c7             	mov    %rax,%rdi
  400c75:	e8 f6 fb ff ff       	callq  400870 <_ZNSolsEPFRSoS_E@plt>
  400c7a:	90                   	nop
  400c7b:	c9                   	leaveq 
  400c7c:	c3                   	retq   
  400c7d:	90                   	nop

0000000000400c7e <_ZN14test_namespace5CTest10test_printEi>:
  400c7e:	55                   	push   %rbp
  400c7f:	48 89 e5             	mov    %rsp,%rbp
  400c82:	48 83 ec 10          	sub    $0x10,%rsp
  400c86:	48 89 7d f8          	mov    %rdi,-0x8(%rbp)
  400c8a:	89 75 f4             	mov    %esi,-0xc(%rbp)
  400c8d:	be 30 0e 40 00       	mov    $0x400e30,%esi
  400c92:	bf 80 20 60 00       	mov    $0x602080,%edi
  400c97:	e8 b4 fb ff ff       	callq  400850 <_ZStlsISt11char_traitsIcEERSt13basic_ostreamIcT_ES5_PKc@plt>
  400c9c:	be 80 08 40 00       	mov    $0x400880,%esi
  400ca1:	48 89 c7             	mov    %rax,%rdi
  400ca4:	e8 c7 fb ff ff       	callq  400870 <_ZNSolsEPFRSoS_E@plt>
  400ca9:	90                   	nop
  400caa:	c9                   	leaveq 
  400cab:	c3                   	retq   

0000000000400cac <_ZN14test_namespace5CTest10test_printEd>:
  400cac:	55                   	push   %rbp
  400cad:	48 89 e5             	mov    %rsp,%rbp
  400cb0:	48 83 ec 10          	sub    $0x10,%rsp
  400cb4:	48 89 7d f8          	mov    %rdi,-0x8(%rbp)
  400cb8:	f2 0f 11 45 f0       	movsd  %xmm0,-0x10(%rbp)
  400cbd:	be 60 0e 40 00       	mov    $0x400e60,%esi
  400cc2:	bf 80 20 60 00       	mov    $0x602080,%edi
  400cc7:	e8 84 fb ff ff       	callq  400850 <_ZStlsISt11char_traitsIcEERSt13basic_ostreamIcT_ES5_PKc@plt>
  400ccc:	be 80 08 40 00       	mov    $0x400880,%esi
  400cd1:	48 89 c7             	mov    %rax,%rdi
  400cd4:	e8 97 fb ff ff       	callq  400870 <_ZNSolsEPFRSoS_E@plt>
  400cd9:	90                   	nop
  400cda:	c9                   	leaveq 
  400cdb:	c3                   	retq   

0000000000400cdc <_ZN5CTestC1Ev>:
  400cdc:	55                   	push   %rbp
  400cdd:	48 89 e5             	mov    %rsp,%rbp
  400ce0:	48 89 7d f8          	mov    %rdi,-0x8(%rbp)
  400ce4:	90                   	nop
  400ce5:	5d                   	pop    %rbp
  400ce6:	c3                   	retq   
  400ce7:	90                   	nop

0000000000400ce8 <_ZN5CTestD1Ev>:
  400ce8:	55                   	push   %rbp
  400ce9:	48 89 e5             	mov    %rsp,%rbp
  400cec:	48 89 7d f8          	mov    %rdi,-0x8(%rbp)
  400cf0:	90                   	nop
  400cf1:	5d                   	pop    %rbp
  400cf2:	c3                   	retq   
  400cf3:	90                   	nop

0000000000400cf4 <_ZN5CTest10test_printEv>:
  400cf4:	55                   	push   %rbp
  400cf5:	48 89 e5             	mov    %rsp,%rbp
  400cf8:	48 83 ec 10          	sub    $0x10,%rsp
  400cfc:	48 89 7d f8          	mov    %rdi,-0x8(%rbp)
  400d00:	be 12 0f 40 00       	mov    $0x400f12,%esi
  400d05:	bf 80 20 60 00       	mov    $0x602080,%edi
  400d0a:	e8 41 fb ff ff       	callq  400850 <_ZStlsISt11char_traitsIcEERSt13basic_ostreamIcT_ES5_PKc@plt>
  400d0f:	be 80 08 40 00       	mov    $0x400880,%esi
  400d14:	48 89 c7             	mov    %rax,%rdi
  400d17:	e8 54 fb ff ff       	callq  400870 <_ZNSolsEPFRSoS_E@plt>
  400d1c:	90                   	nop
  400d1d:	c9                   	leaveq 
  400d1e:	c3                   	retq   
  400d1f:	90                   	nop

0000000000400d20 <_ZN5CTest10test_printEi>:
  400d20:	55                   	push   %rbp
  400d21:	48 89 e5             	mov    %rsp,%rbp
  400d24:	48 83 ec 10          	sub    $0x10,%rsp
  400d28:	48 89 7d f8          	mov    %rdi,-0x8(%rbp)
  400d2c:	89 75 f4             	mov    %esi,-0xc(%rbp)
  400d2f:	be 30 0f 40 00       	mov    $0x400f30,%esi
  400d34:	bf 80 20 60 00       	mov    $0x602080,%edi
  400d39:	e8 12 fb ff ff       	callq  400850 <_ZStlsISt11char_traitsIcEERSt13basic_ostreamIcT_ES5_PKc@plt>
  400d3e:	be 80 08 40 00       	mov    $0x400880,%esi
  400d43:	48 89 c7             	mov    %rax,%rdi
  400d46:	e8 25 fb ff ff       	callq  400870 <_ZNSolsEPFRSoS_E@plt>
  400d4b:	90                   	nop
  400d4c:	c9                   	leaveq 
  400d4d:	c3                   	retq   

0000000000400d4e <_ZN5CTest10test_printEd>:
  400d4e:	55                   	push   %rbp
  400d4f:	48 89 e5             	mov    %rsp,%rbp
  400d52:	48 83 ec 10          	sub    $0x10,%rsp
  400d56:	48 89 7d f8          	mov    %rdi,-0x8(%rbp)
  400d5a:	f2 0f 11 45 f0       	movsd  %xmm0,-0x10(%rbp)
  400d5f:	be 50 0f 40 00       	mov    $0x400f50,%esi
  400d64:	bf 80 20 60 00       	mov    $0x602080,%edi
  400d69:	e8 e2 fa ff ff       	callq  400850 <_ZStlsISt11char_traitsIcEERSt13basic_ostreamIcT_ES5_PKc@plt>
  400d6e:	be 80 08 40 00       	mov    $0x400880,%esi
  400d73:	48 89 c7             	mov    %rax,%rdi
  400d76:	e8 f5 fa ff ff       	callq  400870 <_ZNSolsEPFRSoS_E@plt>
  400d7b:	90                   	nop
  400d7c:	c9                   	leaveq 
  400d7d:	c3                   	retq   
  400d7e:	66 90                	xchg   %ax,%ax

0000000000400d80 <__libc_csu_init>:
  400d80:	41 57                	push   %r15
  400d82:	41 56                	push   %r14
  400d84:	41 89 ff             	mov    %edi,%r15d
  400d87:	41 55                	push   %r13
  400d89:	41 54                	push   %r12
  400d8b:	4c 8d 25 56 10 20 00 	lea    0x201056(%rip),%r12        # 601de8 <__frame_dummy_init_array_entry>
  400d92:	55                   	push   %rbp
  400d93:	48 8d 2d 5e 10 20 00 	lea    0x20105e(%rip),%rbp        # 601df8 <__init_array_end>
  400d9a:	53                   	push   %rbx
  400d9b:	49 89 f6             	mov    %rsi,%r14
  400d9e:	49 89 d5             	mov    %rdx,%r13
  400da1:	4c 29 e5             	sub    %r12,%rbp
  400da4:	48 83 ec 08          	sub    $0x8,%rsp
  400da8:	48 c1 fd 03          	sar    $0x3,%rbp
  400dac:	e8 27 fa ff ff       	callq  4007d8 <_init>
  400db1:	48 85 ed             	test   %rbp,%rbp
  400db4:	74 20                	je     400dd6 <__libc_csu_init+0x56>
  400db6:	31 db                	xor    %ebx,%ebx
  400db8:	0f 1f 84 00 00 00 00 	nopl   0x0(%rax,%rax,1)
  400dbf:	00 
  400dc0:	4c 89 ea             	mov    %r13,%rdx
  400dc3:	4c 89 f6             	mov    %r14,%rsi
  400dc6:	44 89 ff             	mov    %r15d,%edi
  400dc9:	41 ff 14 dc          	callq  *(%r12,%rbx,8)
  400dcd:	48 83 c3 01          	add    $0x1,%rbx
  400dd1:	48 39 eb             	cmp    %rbp,%rbx
  400dd4:	75 ea                	jne    400dc0 <__libc_csu_init+0x40>
  400dd6:	48 83 c4 08          	add    $0x8,%rsp
  400dda:	5b                   	pop    %rbx
  400ddb:	5d                   	pop    %rbp
  400ddc:	41 5c                	pop    %r12
  400dde:	41 5d                	pop    %r13
  400de0:	41 5e                	pop    %r14
  400de2:	41 5f                	pop    %r15
  400de4:	c3                   	retq   
  400de5:	90                   	nop
  400de6:	66 2e 0f 1f 84 00 00 	nopw   %cs:0x0(%rax,%rax,1)
  400ded:	00 00 00 

0000000000400df0 <__libc_csu_fini>:
  400df0:	f3 c3                	repz retq 

Disassembly of section .fini:

0000000000400df4 <_fini>:
  400df4:	48 83 ec 08          	sub    $0x8,%rsp
  400df8:	48 83 c4 08          	add    $0x8,%rsp
  400dfc:	c3                   	retq   
